; Function Attrs: mustprogress nounwind uwtable
define dso_local void @_ZN4llvm7remarks31BitstreamRemarkSerializerHelper20emitMetaExternalFileENS_9StringRefE(ptr noundef nonnull align 8 dereferenceable(1808) %0, ptr %1, i64 %2) local_unnamed_addr #0 align 2 {
  %4 = getelementptr inbounds nuw i8, ptr %0, i64 1048
  %5 = tail call noundef i64 @_ZNK4llvm15SmallVectorBaseIjE4sizeEv(ptr noundef nonnull align 8 dereferenceable(16) %4) #14
  %6 = getelementptr inbounds i8, ptr %0, i64 1056
  store i32 0, ptr %6, align 8
  %7 = tail call noundef i64 @_ZNK4llvm15SmallVectorBaseIjE4sizeEv(ptr noundef nonnull align 8 dereferenceable(16) %4) #14
  %8 = add i64 %7, 1
  %9 = tail call noundef i64 @_ZNK4llvm15SmallVectorBaseIjE8capacityEv(ptr noundef nonnull align 8 dereferenceable(16) %4) #14
  %.not.i.i.i = icmp ugt i64 %8, %9
  br i1 %.not.i.i.i, label %10, label %_ZN4llvm23SmallVectorTemplateBaseImLb1EE9push_backEm.exit

10:                                               ; preds = %3
  %11 = getelementptr inbounds i8, ptr %0, i64 1064
  tail call void @_ZN4llvm15SmallVectorBaseIjE8grow_podEPvmm(ptr noundef nonnull align 8 dereferenceable(16) %4, ptr noundef nonnull %11, i64 noundef %8, i64 noundef 8) #14
  br label %_ZN4llvm23SmallVectorTemplateBaseImLb1EE9push_backEm.exit

_ZN4llvm23SmallVectorTemplateBaseImLb1EE9push_backEm.exit: ; preds = %3, %10
  %12 = load ptr, ptr %4, align 8
  %13 = tail call noundef i64 @_ZNK4llvm15SmallVectorBaseIjE4sizeEv(ptr noundef nonnull align 8 dereferenceable(16) %4) #14
  %14 = getelementptr inbounds i64, ptr %12, i64 %13
  store i64 4, ptr %14, align 1
  %15 = tail call noundef i64 @_ZNK4llvm15SmallVectorBaseIjE4sizeEv(ptr noundef nonnull align 8 dereferenceable(16) %4) #14
  %16 = add i64 %15, 1
  tail call void @_ZN4llvm15SmallVectorBaseIjE8set_sizeEm(ptr noundef nonnull align 8 dereferenceable(16) %4, i64 noundef %16) #14
  %17 = getelementptr inbounds nuw i8, ptr %0, i64 1576
  %18 = getelementptr inbounds nuw i8, ptr %0, i64 1760
  %19 = load i64, ptr %18, align 8
  %20 = trunc i64 %19 to i32
  %21 = load ptr, ptr %4, align 8
  %22 = tail call noundef i64 @_ZNK4llvm15SmallVectorBaseIjE4sizeEv(ptr noundef nonnull align 8 dereferenceable(16) %4) #14
  tail call void @_ZN4llvm15BitstreamWriter24EmitRecordWithAbbrevImplImEEvjNS_8ArrayRefIT_EENS_9StringRefESt8optionalIjE(ptr noundef nonnull align 8 dereferenceable(152) %17, i32 noundef %20, ptr %21, i64 %22, ptr %1, i64 %2, i64 0)
  ret void
}